target datalayout = "e-m:e-p270:32:32-p271:32:32-p272:64:64-i64:64-i128:128-f80:128-n8:16:32:64-S128"
target triple = "x86_64-pc-linux-gnu"

%struct.RBasic = type { i64, i64 }
%struct.RArray = type { %struct.RBasic, %union.anon }
%union.anon = type { %struct.anon }
%struct.anon = type { i64, %union.anon.0, ptr }
%union.anon.0 = type { i64 }
%struct.rb_execution_context_struct = type { ptr, i64, ptr, ptr, i32, i32, ptr, ptr, ptr, i64, i64, i64, ptr, i64, ptr, i64, i64, i8, i8, i64, %struct.anon.14 }
%struct.anon.14 = type { ptr, ptr, i64, [1 x %struct.__jmp_buf_tag] }
%struct.__jmp_buf_tag = type { [8 x i64], i32, %struct.__sigset_t }
%struct.__sigset_t = type { [16 x i64] }
%struct.rb_control_frame_struct = type { ptr, ptr, ptr, i64, ptr, ptr, ptr }

@rb_cArray = dso_local global i64 0, align 8
@rb_eArgError = external global i64, align 8
@.str.138 = private unnamed_addr constant [20 x i8] c"negative array size\00", align 1

; Function Attrs: inlinehint nounwind sspstrong willreturn memory(read) uwtable
define internal i64 @RB_FL_TEST_RAW(i64 noundef %0, i64 noundef %1) #2 {
  %3 = alloca i64, align 8
  %4 = alloca i64, align 8
  store i64 %0, ptr %3, align 8, !tbaa !7
  store i64 %1, ptr %4, align 8, !tbaa !7
  %5 = load i64, ptr %3, align 8, !tbaa !7
  %6 = inttoptr i64 %5 to ptr
  %7 = getelementptr inbounds nuw %struct.RBasic, ptr %6, i32 0, i32 0
  %8 = load i64, ptr %7, align 8, !tbaa !11
  %9 = load i64, ptr %4, align 8, !tbaa !7
  %10 = and i64 %8, %9
  ret i64 %10
}

; Function Attrs: inlinehint nounwind sspstrong willreturn memory(read) uwtable
define internal i64 @RARRAY_EMBED_LEN(i64 noundef %0) #2 {
  %2 = alloca i64, align 8
  %3 = alloca i64, align 8
  store i64 %0, ptr %2, align 8, !tbaa !7
  call void @llvm.lifetime.start.p0(i64 8, ptr %3) #27
  %4 = load i64, ptr %2, align 8, !tbaa !7
  %5 = inttoptr i64 %4 to ptr
  %6 = getelementptr inbounds nuw %struct.RBasic, ptr %5, i32 0, i32 0
  %7 = load i64, ptr %6, align 8, !tbaa !11
  store i64 %7, ptr %3, align 8, !tbaa !7
  %8 = load i64, ptr %3, align 8, !tbaa !7
  %9 = and i64 %8, 4161536
  store i64 %9, ptr %3, align 8, !tbaa !7
  %10 = load i64, ptr %3, align 8, !tbaa !7
  %11 = lshr i64 %10, 15
  store i64 %11, ptr %3, align 8, !tbaa !7
  %12 = load i64, ptr %3, align 8, !tbaa !7
  call void @llvm.lifetime.end.p0(i64 8, ptr %3) #27
  ret i64 %12
}

; Function Attrs: inlinehint nounwind sspstrong willreturn memory(read) uwtable
define internal zeroext i1 @RB_FL_ANY_RAW(i64 noundef %0, i64 noundef %1) #2 {
  %3 = alloca i64, align 8
  %4 = alloca i64, align 8
  store i64 %0, ptr %3, align 8, !tbaa !7
  store i64 %1, ptr %4, align 8, !tbaa !7
  %5 = load i64, ptr %3, align 8, !tbaa !7
  %6 = load i64, ptr %4, align 8, !tbaa !7
  %7 = call i64 @RB_FL_TEST_RAW(i64 noundef %5, i64 noundef %6) #26
  %8 = icmp ne i64 %7, 0
  ret i1 %8
}

; Function Attrs: inlinehint nounwind sspstrong willreturn memory(none) uwtable
define internal i64 @rbimpl_fix2long_by_idiv(i64 noundef %0) #11 {
  %2 = alloca i64, align 8
  %3 = alloca i64, align 8
  %4 = alloca i64, align 8
  %5 = alloca i64, align 8
  store i64 %0, ptr %2, align 8, !tbaa !7
  call void @llvm.lifetime.start.p0(i64 8, ptr %3) #27
  %6 = load i64, ptr %2, align 8, !tbaa !7
  %7 = sub i64 %6, 1
  store i64 %7, ptr %3, align 8, !tbaa !7
  call void @llvm.lifetime.start.p0(i64 8, ptr %4) #27
  %8 = load i64, ptr %3, align 8, !tbaa !7
  %9 = sdiv i64 %8, 2
  store i64 %9, ptr %4, align 8, !tbaa !7
  call void @llvm.lifetime.start.p0(i64 8, ptr %5) #27
  %10 = load i64, ptr %4, align 8, !tbaa !7
  store i64 %10, ptr %5, align 8, !tbaa !7
  %11 = load i64, ptr %5, align 8, !tbaa !7
  call void @llvm.lifetime.end.p0(i64 8, ptr %5) #27
  call void @llvm.lifetime.end.p0(i64 8, ptr %4) #27
  call void @llvm.lifetime.end.p0(i64 8, ptr %3) #27
  ret i64 %11
}

; Function Attrs: inlinehint nounwind sspstrong willreturn memory(none) uwtable
define internal i64 @rbimpl_fix2long_by_shift(i64 noundef %0) #11 {
  %2 = alloca i64, align 8
  %3 = alloca i64, align 8
  %4 = alloca i64, align 8
  %5 = alloca i64, align 8
  store i64 %0, ptr %2, align 8, !tbaa !7
  call void @llvm.lifetime.start.p0(i64 8, ptr %3) #27
  %6 = load i64, ptr %2, align 8, !tbaa !7
  store i64 %6, ptr %3, align 8, !tbaa !7
  call void @llvm.lifetime.start.p0(i64 8, ptr %4) #27
  %7 = load i64, ptr %3, align 8, !tbaa !7
  %8 = ashr i64 %7, 1
  store i64 %8, ptr %4, align 8, !tbaa !7
  call void @llvm.lifetime.start.p0(i64 8, ptr %5) #27
  %9 = load i64, ptr %4, align 8, !tbaa !7
  store i64 %9, ptr %5, align 8, !tbaa !7
  %10 = load i64, ptr %5, align 8, !tbaa !7
  call void @llvm.lifetime.end.p0(i64 8, ptr %5) #27
  call void @llvm.lifetime.end.p0(i64 8, ptr %4) #27
  call void @llvm.lifetime.end.p0(i64 8, ptr %3) #27
  ret i64 %10
}

; Function Attrs: inlinehint nounwind sspstrong willreturn memory(none) uwtable
define internal zeroext i1 @rbimpl_right_shift_is_arithmetic_p() #11 {
  ret i1 true
}

; Function Attrs: inlinehint nounwind sspstrong willreturn memory(read) uwtable
define internal i64 @rb_array_len(i64 noundef %0) #2 {
  %2 = alloca i64, align 8
  %3 = alloca i64, align 8
  store i64 %0, ptr %3, align 8, !tbaa !7
  %4 = load i64, ptr %3, align 8, !tbaa !7
  %5 = call zeroext i1 @RB_FL_ANY_RAW(i64 noundef %4, i64 noundef 8192) #26
  br i1 %5, label %6, label %9

6:                                                ; preds = %1
  %7 = load i64, ptr %3, align 8, !tbaa !7
  %8 = call i64 @RARRAY_EMBED_LEN(i64 noundef %7) #26
  store i64 %8, ptr %2, align 8
  br label %15

9:                                                ; preds = %1
  %10 = load i64, ptr %3, align 8, !tbaa !7
  %11 = inttoptr i64 %10 to ptr
  %12 = getelementptr inbounds nuw %struct.RArray, ptr %11, i32 0, i32 1
  %13 = getelementptr inbounds nuw %struct.anon, ptr %12, i32 0, i32 0
  %14 = load i64, ptr %13, align 8, !tbaa !13
  store i64 %14, ptr %2, align 8
  br label %15

15:                                               ; preds = %9, %6
  %16 = load i64, ptr %2, align 8
  ret i64 %16
}

; Function Attrs: inlinehint nounwind sspstrong willreturn memory(none) uwtable
define internal i64 @rb_fix2long(i64 noundef %0) #11 {
  %2 = alloca i64, align 8
  %3 = alloca i64, align 8
  store i64 %0, ptr %3, align 8, !tbaa !7
  %4 = call zeroext i1 @rbimpl_right_shift_is_arithmetic_p() #29
  br i1 %4, label %5, label %8

5:                                                ; preds = %1
  %6 = load i64, ptr %3, align 8, !tbaa !7
  %7 = call i64 @rbimpl_fix2long_by_shift(i64 noundef %6) #29
  store i64 %7, ptr %2, align 8
  br label %11

8:                                                ; preds = %1
  %9 = load i64, ptr %3, align 8, !tbaa !7
  %10 = call i64 @rbimpl_fix2long_by_idiv(i64 noundef %9) #29
  store i64 %10, ptr %2, align 8
  br label %11

11:                                               ; preds = %8, %5
  %12 = load i64, ptr %2, align 8
  ret i64 %12
}

; Function Attrs: inlinehint nounwind sspstrong willreturn memory(none) uwtable
define internal zeroext i1 @RB_FIXNUM_P(i64 noundef %0) #11 {
  %2 = alloca i64, align 8
  store i64 %0, ptr %2, align 8, !tbaa !7
  %3 = load i64, ptr %2, align 8, !tbaa !7
  %4 = and i64 %3, 1
  %5 = icmp ne i64 %4, 0
  ret i1 %5
}

; Function Attrs: nounwind sspstrong uwtable
define internal i64 @ary_take_first_or_last_n(i64 noundef %0, i64 noundef %1, i32 noundef %2) #0 {
  %4 = alloca i64, align 8
  %5 = alloca i64, align 8
  %6 = alloca i32, align 4
  %7 = alloca i64, align 8
  %8 = alloca i64, align 8
  store i64 %0, ptr %4, align 8, !tbaa !7
  store i64 %1, ptr %5, align 8, !tbaa !7
  store i32 %2, ptr %6, align 4, !tbaa !31
  call void @llvm.lifetime.start.p0(i64 8, ptr %7) #27
  %9 = load i64, ptr %4, align 8, !tbaa !7
  %10 = call i64 @rb_array_len(i64 noundef %9) #26
  store i64 %10, ptr %7, align 8, !tbaa !7
  call void @llvm.lifetime.start.p0(i64 8, ptr %8) #27
  store i64 0, ptr %8, align 8, !tbaa !7
  %11 = load i64, ptr %5, align 8, !tbaa !7
  %12 = load i64, ptr %7, align 8, !tbaa !7
  %13 = icmp sgt i64 %11, %12
  br i1 %13, label %14, label %16

14:                                               ; preds = %3
  %15 = load i64, ptr %7, align 8, !tbaa !7
  store i64 %15, ptr %5, align 8, !tbaa !7
  br label %22

16:                                               ; preds = %3
  %17 = load i64, ptr %5, align 8, !tbaa !7
  %18 = icmp slt i64 %17, 0
  br i1 %18, label %19, label %21

19:                                               ; preds = %16
  %20 = load i64, ptr @rb_eArgError, align 8, !tbaa !7
  call void (i64, ptr, ...) @rb_raise(i64 noundef %20, ptr noundef @.str.138) #30
  unreachable

21:                                               ; preds = %16
  br label %22

22:                                               ; preds = %21, %14
  %23 = load i32, ptr %6, align 4, !tbaa !31
  %24 = icmp ne i32 %23, 0
  br i1 %24, label %25, label %29

25:                                               ; preds = %22
  %26 = load i64, ptr %7, align 8, !tbaa !7
  %27 = load i64, ptr %5, align 8, !tbaa !7
  %28 = sub i64 %26, %27
  store i64 %28, ptr %8, align 8, !tbaa !7
  br label %29

29:                                               ; preds = %25, %22
  %30 = load i64, ptr %4, align 8, !tbaa !7
  %31 = load i64, ptr @rb_cArray, align 8, !tbaa !7
  %32 = load i64, ptr %8, align 8, !tbaa !7
  %33 = load i64, ptr %5, align 8, !tbaa !7
  %34 = call i64 @ary_make_partial(i64 noundef %30, i64 noundef %31, i64 noundef %32, i64 noundef %33)
  call void @llvm.lifetime.end.p0(i64 8, ptr %8) #27
  call void @llvm.lifetime.end.p0(i64 8, ptr %7) #27
  ret i64 %34
}

; Function Attrs: inlinehint nounwind sspstrong uwtable
define internal i64 @rb_num2long_inline(i64 noundef %0) #1 {
  %2 = alloca i64, align 8
  %3 = alloca i64, align 8
  store i64 %0, ptr %3, align 8, !tbaa !7
  %4 = load i64, ptr %3, align 8, !tbaa !7
  %5 = call zeroext i1 @RB_FIXNUM_P(i64 noundef %4) #29
  br i1 %5, label %6, label %9

6:                                                ; preds = %1
  %7 = load i64, ptr %3, align 8, !tbaa !7
  %8 = call i64 @rb_fix2long(i64 noundef %7) #29
  store i64 %8, ptr %2, align 8
  br label %12

9:                                                ; preds = %1
  %10 = load i64, ptr %3, align 8, !tbaa !7
  %11 = call i64 @rb_num2long(i64 noundef %10)
  store i64 %11, ptr %2, align 8
  br label %12

12:                                               ; preds = %9, %6
  %13 = load i64, ptr %2, align 8
  ret i64 %13
}

; Function Attrs: nounwind sspstrong uwtable
define internal i64 @builtin_inline_class_137(ptr noundef %0, i64 noundef %1) #0 {
  %3 = alloca ptr, align 8
  %4 = alloca i64, align 8
  %5 = alloca ptr, align 8
  %6 = alloca i64, align 8
  store ptr %0, ptr %3, align 8, !tbaa !36
  store i64 %1, ptr %4, align 8, !tbaa !7
  call void @llvm.lifetime.start.p0(i64 8, ptr %5) #27
  %7 = load ptr, ptr %3, align 8, !tbaa !36
  %8 = getelementptr inbounds nuw %struct.rb_execution_context_struct, ptr %7, i32 0, i32 2
  %9 = load ptr, ptr %8, align 8, !tbaa !175
  %10 = getelementptr inbounds nuw %struct.rb_control_frame_struct, ptr %9, i32 0, i32 4
  %11 = load ptr, ptr %10, align 8, !tbaa !184
  %12 = getelementptr i64, ptr %11, i64 -4
  store ptr %12, ptr %5, align 8, !tbaa !14
  call void @llvm.lifetime.start.p0(i64 8, ptr %6) #27
  %13 = load ptr, ptr %5, align 8, !tbaa !14
  %14 = load i64, ptr %13, align 8, !tbaa !7
  store i64 %14, ptr %6, align 8, !tbaa !7
  %15 = load i64, ptr %4, align 8, !tbaa !7
  %16 = load i64, ptr %6, align 8, !tbaa !7
  %17 = call i64 @rb_num2long_inline(i64 noundef %16)
  %18 = call i64 @ary_take_first_or_last_n(i64 noundef %15, i64 noundef %17, i32 noundef 0)
  call void @llvm.lifetime.end.p0(i64 8, ptr %6) #27
  call void @llvm.lifetime.end.p0(i64 8, ptr %5) #27
  ret i64 %18
}